; Function Attrs: mustprogress uwtable
define noundef ptr @_ZN3re214SimplifyWalker10ShortVisitEPNS_6RegexpES2_(ptr nocapture nonnull readnone align 8 %this, ptr noundef %re, ptr nocapture readnone %parent_arg) unnamed_addr #0 align 2 personality ptr @__gxx_personality_v0 {
entry:
  %ref.tmp = alloca %class.LogMessage, align 8
  store i8 0, ptr %ref.tmp, align 8
  %str_.i = getelementptr inbounds i8, ptr %ref.tmp, i64 8
  call void @_ZNSt7__cxx1119basic_ostringstreamIcSt11char_traitsIcESaIcEEC1Ev(ptr noundef nonnull align 8 dereferenceable(112) %str_.i)
  %call3.i = invoke noundef nonnull align 8 dereferenceable(8) ptr @_ZStlsISt11char_traitsIcEERSt13basic_ostreamIcT_ES5_PKc(ptr noundef nonnull align 8 dereferenceable(8) %str_.i, ptr noundef nonnull @.str)
          to label %invoke.cont2.i unwind label %lpad.i

invoke.cont2.i:                                   ; preds = %entry
  %call5.i = invoke noundef nonnull align 8 dereferenceable(8) ptr @_ZStlsISt11char_traitsIcEERSt13basic_ostreamIcT_ES5_PKc(ptr noundef nonnull align 8 dereferenceable(8) %call3.i, ptr noundef nonnull @.str.9)
          to label %invoke.cont4.i unwind label %lpad.i

invoke.cont4.i:                                   ; preds = %invoke.cont2.i
  %call7.i = invoke noundef nonnull align 8 dereferenceable(8) ptr @_ZNSolsEi(ptr noundef nonnull align 8 dereferenceable(8) %call5.i, i32 noundef 451)
          to label %invoke.cont6.i unwind label %lpad.i

invoke.cont6.i:                                   ; preds = %invoke.cont4.i
  %call9.i = invoke noundef nonnull align 8 dereferenceable(8) ptr @_ZStlsISt11char_traitsIcEERSt13basic_ostreamIcT_ES5_PKc(ptr noundef nonnull align 8 dereferenceable(8) %call7.i, ptr noundef nonnull @.str.10)
          to label %_ZN10LogMessageC2EPKci.exit unwind label %lpad.i

common.resume:                                    ; preds = %lpad, %lpad.i
  %common.resume.op = phi { ptr, i32 } [ %0, %lpad.i ], [ %1, %lpad ]
  resume { ptr, i32 } %common.resume.op

lpad.i:                                           ; preds = %invoke.cont6.i, %invoke.cont4.i, %invoke.cont2.i, %entry
  %0 = landingpad { ptr, i32 }
          cleanup
  call void @_ZNSt7__cxx1119basic_ostringstreamIcSt11char_traitsIcESaIcEED1Ev(ptr noundef nonnull align 8 dereferenceable(112) %str_.i) #14
  br label %common.resume

_ZN10LogMessageC2EPKci.exit:                      ; preds = %invoke.cont6.i
  %call3 = invoke noundef nonnull align 8 dereferenceable(8) ptr @_ZStlsISt11char_traitsIcEERSt13basic_ostreamIcT_ES5_PKc(ptr noundef nonnull align 8 dereferenceable(8) %str_.i, ptr noundef nonnull @.str.5)
          to label %invoke.cont2 unwind label %lpad

invoke.cont2:                                     ; preds = %_ZN10LogMessageC2EPKci.exit
  call void @_ZN10LogMessageD2Ev(ptr noundef nonnull align 8 dereferenceable(384) %ref.tmp) #14
  %call4 = call noundef ptr @_ZN3re26Regexp6IncrefEv(ptr noundef nonnull align 8 dereferenceable(40) %re)
  ret ptr %call4

lpad:                                             ; preds = %_ZN10LogMessageC2EPKci.exit
  %1 = landingpad { ptr, i32 }
          cleanup
  call void @_ZN10LogMessageD2Ev(ptr noundef nonnull align 8 dereferenceable(384) %ref.tmp) #14
  br label %common.resume
}